; Function Attrs: mustprogress nofree noinline norecurse nosync nounwind willreturn memory(argmem: readwrite) uwtable
define void @_ZN3net23CachedNetworkParameters4SwapEPS0_(ptr noundef nonnull align 8 captures(address) dereferenceable(72) %0, ptr noundef captures(address) %1) local_unnamed_addr #15 align 2 {
  %3 = icmp eq ptr %1, %0
  br i1 %3, label %45, label %4

4:                                                ; preds = %2
  %5 = getelementptr inbounds nuw i8, ptr %0, i64 32
  %6 = getelementptr inbounds nuw i8, ptr %1, i64 32
  %7 = load ptr, ptr %5, align 8, !tbaa !19
  %8 = load ptr, ptr %6, align 8, !tbaa !19
  store ptr %8, ptr %5, align 8, !tbaa !19
  store ptr %7, ptr %6, align 8, !tbaa !19
  %9 = getelementptr inbounds nuw i8, ptr %0, i64 40
  %10 = getelementptr inbounds nuw i8, ptr %1, i64 40
  %11 = load i32, ptr %9, align 8, !tbaa !22
  %12 = load i32, ptr %10, align 4, !tbaa !22
  store i32 %12, ptr %9, align 8, !tbaa !22
  store i32 %11, ptr %10, align 4, !tbaa !22
  %13 = getelementptr inbounds nuw i8, ptr %0, i64 44
  %14 = getelementptr inbounds nuw i8, ptr %1, i64 44
  %15 = load i32, ptr %13, align 4, !tbaa !22
  %16 = load i32, ptr %14, align 4, !tbaa !22
  store i32 %16, ptr %13, align 4, !tbaa !22
  store i32 %15, ptr %14, align 4, !tbaa !22
  %17 = getelementptr inbounds nuw i8, ptr %0, i64 48
  %18 = getelementptr inbounds nuw i8, ptr %1, i64 48
  %19 = load i64, ptr %17, align 8, !tbaa !49
  %20 = load i64, ptr %18, align 8, !tbaa !49
  store i64 %20, ptr %17, align 8, !tbaa !49
  store i64 %19, ptr %18, align 8, !tbaa !49
  %21 = getelementptr inbounds nuw i8, ptr %0, i64 56
  %22 = getelementptr inbounds nuw i8, ptr %1, i64 56
  %23 = load i32, ptr %21, align 8, !tbaa !22
  %24 = load i32, ptr %22, align 4, !tbaa !22
  store i32 %24, ptr %21, align 8, !tbaa !22
  store i32 %23, ptr %22, align 4, !tbaa !22
  %25 = getelementptr inbounds nuw i8, ptr %0, i64 60
  %26 = getelementptr inbounds nuw i8, ptr %1, i64 60
  %27 = load i32, ptr %25, align 4, !tbaa !22
  %28 = load i32, ptr %26, align 4, !tbaa !22
  store i32 %28, ptr %25, align 4, !tbaa !22
  store i32 %27, ptr %26, align 4, !tbaa !22
  %29 = getelementptr inbounds nuw i8, ptr %0, i64 64
  %30 = getelementptr inbounds nuw i8, ptr %1, i64 64
  %31 = load i64, ptr %29, align 8, !tbaa !49
  %32 = load i64, ptr %30, align 8, !tbaa !49
  store i64 %32, ptr %29, align 8, !tbaa !49
  store i64 %31, ptr %30, align 8, !tbaa !49
  %33 = getelementptr inbounds nuw i8, ptr %0, i64 24
  %34 = getelementptr inbounds nuw i8, ptr %1, i64 24
  %35 = load i32, ptr %33, align 8, !tbaa !22
  %36 = load i32, ptr %34, align 4, !tbaa !22
  store i32 %36, ptr %33, align 8, !tbaa !22
  store i32 %35, ptr %34, align 4, !tbaa !22
  %37 = getelementptr inbounds nuw i8, ptr %0, i64 8
  %38 = getelementptr inbounds nuw i8, ptr %1, i64 8
  %39 = load ptr, ptr %37, align 8, !tbaa !19
  %40 = load ptr, ptr %38, align 8, !tbaa !19
  store ptr %40, ptr %37, align 8, !tbaa !19
  store ptr %39, ptr %38, align 8, !tbaa !19
  %41 = getelementptr inbounds nuw i8, ptr %0, i64 28
  %42 = getelementptr inbounds nuw i8, ptr %1, i64 28
  %43 = load i32, ptr %41, align 4, !tbaa !22
  %44 = load i32, ptr %42, align 4, !tbaa !22
  store i32 %44, ptr %41, align 4, !tbaa !22
  store i32 %43, ptr %42, align 4, !tbaa !22
  br label %45

45:                                               ; preds = %2, %4
  ret void
}